; Function Attrs: nounwind uwtable
define ptr @l_Std_DHashMap_Internal_AssocList_replace___at___private_Lean_Meta_Tactic_Grind_Arith_CommRing_Proof_0__Lean_Meta_Grind_Arith_CommRing_Null_caching___spec__7___boxed(ptr noundef %0, ptr noundef %1, ptr noundef %2) local_unnamed_addr #1 {
  %4 = getelementptr i8, ptr %0, i64 8
  %.val = load i64, ptr %4, align 8, !tbaa !15
  %5 = ptrtoint ptr %0 to i64
  %6 = and i64 %5, 1
  %.not = icmp eq i64 %6, 0
  br i1 %.not, label %7, label %lean_dec.exit

7:                                                ; preds = %3
  %8 = load i32, ptr %0, align 4, !tbaa !6
  %9 = icmp sgt i32 %8, 1
  br i1 %9, label %10, label %12, !prof !5

10:                                               ; preds = %7
  %11 = add nsw i32 %8, -1
  store i32 %11, ptr %0, align 4, !tbaa !6
  br label %lean_dec.exit

12:                                               ; preds = %7
  %.not.i = icmp eq i32 %8, 0
  br i1 %.not.i, label %lean_dec.exit, label %13

13:                                               ; preds = %12
  tail call void @lean_dec_ref_cold(ptr noundef nonnull %0) #6
  br label %lean_dec.exit

lean_dec.exit:                                    ; preds = %13, %12, %10, %3
  %14 = tail call ptr @l_Std_DHashMap_Internal_AssocList_replace___at___private_Lean_Meta_Tactic_Grind_Arith_CommRing_Proof_0__Lean_Meta_Grind_Arith_CommRing_Null_caching___spec__7(i64 noundef %.val, ptr noundef %1, ptr noundef %2)
  ret ptr %14
}